target datalayout = "e-m:e-p270:32:32-p271:32:32-p272:64:64-i64:64-i128:128-f80:128-n8:16:32:64-S128"
target triple = "x86_64-pc-linux-gnu"

%class.TypeInt = type { %class.TypeInteger.base, i32, i32 }
%class.TypeInteger.base = type { %class.Type.base, i16 }
%class.Type.base = type <{ ptr, ptr, i32 }>
%class.TypeInteger = type { %class.Type.base, i16, [2 x i8] }

@_ZN7TypeInt3INTE = external global ptr, align 8
@_ZN7TypeInt4BOOLE = external global ptr, align 8

; Function Attrs: mustprogress nounwind uwtable
define linkonce_odr hidden noundef i32 @_ZNK7TypeInt7get_conEv(ptr noundef nonnull align 8 dereferenceable(32) %0) #1 comdat align 2 {
  %2 = alloca ptr, align 8
  store ptr %0, ptr %2, align 8
  %3 = load ptr, ptr %2, align 8
  %4 = getelementptr inbounds %class.TypeInt, ptr %3, i32 0, i32 1
  %5 = load i32, ptr %4, align 8
  ret i32 %5
}

; Function Attrs: mustprogress nounwind uwtable
define linkonce_odr hidden noundef zeroext i1 @_ZNK7TypeInt6is_conEv(ptr noundef nonnull align 8 dereferenceable(32) %0) #1 comdat align 2 {
  %2 = alloca ptr, align 8
  store ptr %0, ptr %2, align 8
  %3 = load ptr, ptr %2, align 8
  %4 = getelementptr inbounds %class.TypeInt, ptr %3, i32 0, i32 1
  %5 = load i32, ptr %4, align 8
  %6 = getelementptr inbounds %class.TypeInt, ptr %3, i32 0, i32 2
  %7 = load i32, ptr %6, align 4
  %8 = icmp eq i32 %5, %7
  ret i1 %8
}

; Function Attrs: mustprogress nounwind uwtable
define linkonce_odr hidden noundef signext i16 @_Z4MAX2IsET_S0_S0_(i16 noundef signext %0, i16 noundef signext %1) #1 comdat {
  %3 = alloca i16, align 2
  %4 = alloca i16, align 2
  store i16 %0, ptr %3, align 2
  store i16 %1, ptr %4, align 2
  %5 = load i16, ptr %3, align 2
  %6 = sext i16 %5 to i32
  %7 = load i16, ptr %4, align 2
  %8 = sext i16 %7 to i32
  %9 = icmp sgt i32 %6, %8
  br i1 %9, label %10, label %12

10:                                               ; preds = %2
  %11 = load i16, ptr %3, align 2
  br label %14

12:                                               ; preds = %2
  %13 = load i16, ptr %4, align 2
  br label %14

14:                                               ; preds = %12, %10
  %15 = phi i16 [ %11, %10 ], [ %13, %12 ]
  ret i16 %15
}

; Function Attrs: mustprogress nounwind uwtable
define linkonce_odr hidden noundef ptr @_ZNK4Type6is_intEv(ptr noundef nonnull align 8 dereferenceable(20) %0) #1 comdat align 2 {
  %2 = alloca ptr, align 8
  store ptr %0, ptr %2, align 8
  %3 = load ptr, ptr %2, align 8
  ret ptr %3
}

; Function Attrs: mustprogress nounwind uwtable
define hidden noundef ptr @_ZNK8AndINode8mul_ringEPK4TypeS2_(ptr noundef nonnull align 8 dereferenceable(52) %0, ptr noundef %1, ptr noundef %2) unnamed_addr #1 align 2 {
  %4 = alloca ptr, align 8
  %5 = alloca ptr, align 8
  %6 = alloca ptr, align 8
  %7 = alloca ptr, align 8
  %8 = alloca ptr, align 8
  %9 = alloca ptr, align 8
  %10 = alloca i32, align 4
  store ptr %0, ptr %5, align 8
  store ptr %1, ptr %6, align 8
  store ptr %2, ptr %7, align 8
  %11 = load ptr, ptr %6, align 8
  %12 = call noundef ptr @_ZNK4Type6is_intEv(ptr noundef nonnull align 8 dereferenceable(20) %11)
  store ptr %12, ptr %8, align 8
  %13 = load ptr, ptr %7, align 8
  %14 = call noundef ptr @_ZNK4Type6is_intEv(ptr noundef nonnull align 8 dereferenceable(20) %13)
  store ptr %14, ptr %9, align 8
  %15 = load ptr, ptr %8, align 8
  %16 = getelementptr inbounds %class.TypeInteger, ptr %15, i32 0, i32 1
  %17 = load i16, ptr %16, align 4
  %18 = load ptr, ptr %9, align 8
  %19 = getelementptr inbounds %class.TypeInteger, ptr %18, i32 0, i32 1
  %20 = load i16, ptr %19, align 4
  %21 = call noundef signext i16 @_Z4MAX2IsET_S0_S0_(i16 noundef signext %17, i16 noundef signext %20)
  %22 = sext i16 %21 to i32
  store i32 %22, ptr %10, align 4
  %23 = load ptr, ptr %8, align 8
  %24 = call noundef zeroext i1 @_ZNK7TypeInt6is_conEv(ptr noundef nonnull align 8 dereferenceable(32) %23)
  br i1 %24, label %30, label %25

25:                                               ; preds = %3
  %26 = load ptr, ptr %9, align 8
  %27 = call noundef zeroext i1 @_ZNK7TypeInt6is_conEv(ptr noundef nonnull align 8 dereferenceable(32) %26)
  br i1 %27, label %30, label %28

28:                                               ; preds = %25
  %29 = load ptr, ptr @_ZN7TypeInt3INTE, align 8
  store ptr %29, ptr %4, align 8
  br label %79

30:                                               ; preds = %25, %3
  %31 = load ptr, ptr %8, align 8
  %32 = call noundef zeroext i1 @_ZNK7TypeInt6is_conEv(ptr noundef nonnull align 8 dereferenceable(32) %31)
  br i1 %32, label %33, label %43

33:                                               ; preds = %30
  %34 = load ptr, ptr %9, align 8
  %35 = call noundef zeroext i1 @_ZNK7TypeInt6is_conEv(ptr noundef nonnull align 8 dereferenceable(32) %34)
  br i1 %35, label %36, label %43

36:                                               ; preds = %33
  %37 = load ptr, ptr %8, align 8
  %38 = call noundef i32 @_ZNK7TypeInt7get_conEv(ptr noundef nonnull align 8 dereferenceable(32) %37)
  %39 = load ptr, ptr %9, align 8
  %40 = call noundef i32 @_ZNK7TypeInt7get_conEv(ptr noundef nonnull align 8 dereferenceable(32) %39)
  %41 = and i32 %38, %40
  %42 = call noundef ptr @_ZN7TypeInt4makeEi(i32 noundef %41)
  store ptr %42, ptr %4, align 8
  br label %79

43:                                               ; preds = %33, %30
  %44 = load ptr, ptr %8, align 8
  %45 = call noundef zeroext i1 @_ZNK7TypeInt6is_conEv(ptr noundef nonnull align 8 dereferenceable(32) %44)
  br i1 %45, label %46, label %55

46:                                               ; preds = %43
  %47 = load ptr, ptr %8, align 8
  %48 = call noundef i32 @_ZNK7TypeInt7get_conEv(ptr noundef nonnull align 8 dereferenceable(32) %47)
  %49 = icmp sgt i32 %48, 0
  br i1 %49, label %50, label %55

50:                                               ; preds = %46
  %51 = load ptr, ptr %8, align 8
  %52 = call noundef i32 @_ZNK7TypeInt7get_conEv(ptr noundef nonnull align 8 dereferenceable(32) %51)
  %53 = load i32, ptr %10, align 4
  %54 = call noundef ptr @_ZN7TypeInt4makeEiii(i32 noundef 0, i32 noundef %52, i32 noundef %53)
  store ptr %54, ptr %4, align 8
  br label %79

55:                                               ; preds = %46, %43
  %56 = load ptr, ptr %9, align 8
  %57 = call noundef zeroext i1 @_ZNK7TypeInt6is_conEv(ptr noundef nonnull align 8 dereferenceable(32) %56)
  br i1 %57, label %58, label %67

58:                                               ; preds = %55
  %59 = load ptr, ptr %9, align 8
  %60 = call noundef i32 @_ZNK7TypeInt7get_conEv(ptr noundef nonnull align 8 dereferenceable(32) %59)
  %61 = icmp sgt i32 %60, 0
  br i1 %61, label %62, label %67

62:                                               ; preds = %58
  %63 = load ptr, ptr %9, align 8
  %64 = call noundef i32 @_ZNK7TypeInt7get_conEv(ptr noundef nonnull align 8 dereferenceable(32) %63)
  %65 = load i32, ptr %10, align 4
  %66 = call noundef ptr @_ZN7TypeInt4makeEiii(i32 noundef 0, i32 noundef %64, i32 noundef %65)
  store ptr %66, ptr %4, align 8
  br label %79

67:                                               ; preds = %58, %55
  %68 = load ptr, ptr %8, align 8
  %69 = load ptr, ptr @_ZN7TypeInt4BOOLE, align 8
  %70 = icmp eq ptr %68, %69
  br i1 %70, label %75, label %71

71:                                               ; preds = %67
  %72 = load ptr, ptr %9, align 8
  %73 = load ptr, ptr @_ZN7TypeInt4BOOLE, align 8
  %74 = icmp eq ptr %72, %73
  br i1 %74, label %75, label %77

75:                                               ; preds = %71, %67
  %76 = load ptr, ptr @_ZN7TypeInt4BOOLE, align 8
  store ptr %76, ptr %4, align 8
  br label %79

77:                                               ; preds = %71
  %78 = load ptr, ptr @_ZN7TypeInt3INTE, align 8
  store ptr %78, ptr %4, align 8
  br label %79

79:                                               ; preds = %77, %75, %62, %50, %36, %28
  %80 = load ptr, ptr %4, align 8
  ret ptr %80
}