; Function Attrs: mustprogress nounwind uwtable
define hidden noundef ptr @_ZNK8AndINode8mul_ringEPK4TypeS2_(ptr nocapture noundef nonnull readnone align 8 dereferenceable(52) %0, ptr noundef readonly %1, ptr noundef readonly %2) unnamed_addr #0 align 2 {
  %4 = getelementptr inbounds i8, ptr %1, i64 20
  %5 = load i16, ptr %4, align 4
  %6 = getelementptr inbounds i8, ptr %2, i64 20
  %7 = load i16, ptr %6, align 4
  %8 = tail call noundef i16 @llvm.smax.i16(i16 %5, i16 %7)
  %9 = sext i16 %8 to i32
  %10 = getelementptr inbounds i8, ptr %1, i64 24
  %11 = load i32, ptr %10, align 8
  %12 = getelementptr inbounds i8, ptr %1, i64 28
  %13 = load i32, ptr %12, align 4
  %14 = icmp eq i32 %11, %13
  %15 = getelementptr inbounds i8, ptr %2, i64 24
  %16 = load i32, ptr %15, align 8
  %17 = getelementptr inbounds i8, ptr %2, i64 28
  %18 = load i32, ptr %17, align 4
  %19 = icmp eq i32 %16, %18
  br i1 %14, label %23, label %20

20:                                               ; preds = %3
  br i1 %19, label %31, label %21

21:                                               ; preds = %20
  %22 = load ptr, ptr @_ZN7TypeInt3INTE, align 8
  br label %42

23:                                               ; preds = %3
  br i1 %19, label %24, label %27

24:                                               ; preds = %23
  %25 = and i32 %16, %11
  %26 = tail call noundef ptr @_ZN7TypeInt4makeEi(i32 noundef %25) #10
  br label %42

27:                                               ; preds = %23
  %28 = icmp sgt i32 %11, 0
  br i1 %28, label %29, label %31

29:                                               ; preds = %27
  %30 = tail call noundef ptr @_ZN7TypeInt4makeEiii(i32 noundef 0, i32 noundef %11, i32 noundef %9) #10
  br label %42

31:                                               ; preds = %20, %27
  %32 = phi i32 [ %16, %20 ], [ %18, %27 ]
  %33 = icmp eq i32 %16, %32
  %34 = icmp sgt i32 %16, 0
  %or.cond22 = and i1 %34, %33
  br i1 %or.cond22, label %35, label %37

35:                                               ; preds = %31
  %36 = tail call noundef ptr @_ZN7TypeInt4makeEiii(i32 noundef 0, i32 noundef %32, i32 noundef %9) #10
  br label %42

37:                                               ; preds = %31
  %38 = load ptr, ptr @_ZN7TypeInt4BOOLE, align 8
  %39 = icmp eq ptr %38, %1
  %40 = icmp eq ptr %38, %2
  %or.cond = or i1 %39, %40
  %41 = load ptr, ptr @_ZN7TypeInt3INTE, align 8
  %spec.select = select i1 %or.cond, ptr %38, ptr %41
  br label %42

42:                                               ; preds = %37, %35, %29, %24, %21
  %.0 = phi ptr [ %26, %24 ], [ %30, %29 ], [ %36, %35 ], [ %22, %21 ], [ %spec.select, %37 ]
  ret ptr %.0
}